target datalayout = "e-m:e-p270:32:32-p271:32:32-p272:64:64-i64:64-i128:128-f80:128-n8:16:32:64-S128"
target triple = "x86_64-pc-linux-gnu"

%struct.HeapScanDescData = type { %struct.TableScanDescData, i32, i32, i32, i8, i16, i32, i32, ptr, %struct.HeapTupleData, ptr, i32, i32, ptr, i32, i32, [291 x i16] }
%struct.TableScanDescData = type { ptr, ptr, i32, ptr, %union.anon, i32, ptr }
%union.anon = type { %struct.TBMIterator }
%struct.TBMIterator = type { i8, %union.anon.0 }
%union.anon.0 = type { ptr }
%struct.HeapTupleData = type { i32, %struct.ItemPointerData, i32, ptr }
%struct.ItemPointerData = type { %struct.BlockIdData, i16 }
%struct.BlockIdData = type { i16, i16 }

; Function Attrs: noinline nounwind uwtable
define internal i32 @heapgettup_initial_block(ptr noundef %0, i32 noundef %1) #8 {
  %3 = alloca i32, align 4
  %4 = alloca ptr, align 8
  %5 = alloca i32, align 4
  store ptr %0, ptr %4, align 8
  store i32 %1, ptr %5, align 4
  %6 = load ptr, ptr %4, align 8
  %7 = getelementptr inbounds nuw %struct.HeapScanDescData, ptr %6, i32 0, i32 1
  %8 = load i32, ptr %7, align 8
  %9 = icmp eq i32 %8, 0
  br i1 %9, label %15, label %10

10:                                               ; preds = %2
  %11 = load ptr, ptr %4, align 8
  %12 = getelementptr inbounds nuw %struct.HeapScanDescData, ptr %11, i32 0, i32 3
  %13 = load i32, ptr %12, align 8
  %14 = icmp eq i32 %13, 0
  br i1 %14, label %15, label %16

15:                                               ; preds = %10, %2
  store i32 -1, ptr %3, align 4
  br label %61

16:                                               ; preds = %10
  %17 = load i32, ptr %5, align 4
  %18 = icmp eq i32 %17, 1
  br i1 %18, label %19, label %23

19:                                               ; preds = %16
  %20 = load ptr, ptr %4, align 8
  %21 = getelementptr inbounds nuw %struct.HeapScanDescData, ptr %20, i32 0, i32 2
  %22 = load i32, ptr %21, align 4
  store i32 %22, ptr %3, align 4
  br label %61

23:                                               ; preds = %16
  %24 = load ptr, ptr %4, align 8
  %25 = getelementptr inbounds nuw %struct.HeapScanDescData, ptr %24, i32 0, i32 0
  %26 = getelementptr inbounds nuw %struct.TableScanDescData, ptr %25, i32 0, i32 5
  %27 = load i32, ptr %26, align 8
  %28 = and i32 %27, -129
  store i32 %28, ptr %26, align 8
  %29 = load ptr, ptr %4, align 8
  %30 = getelementptr inbounds nuw %struct.HeapScanDescData, ptr %29, i32 0, i32 3
  %31 = load i32, ptr %30, align 8
  %32 = icmp ne i32 %31, -1
  br i1 %32, label %33, label %46

33:                                               ; preds = %23
  %34 = load ptr, ptr %4, align 8
  %35 = getelementptr inbounds nuw %struct.HeapScanDescData, ptr %34, i32 0, i32 2
  %36 = load i32, ptr %35, align 4
  %37 = load ptr, ptr %4, align 8
  %38 = getelementptr inbounds nuw %struct.HeapScanDescData, ptr %37, i32 0, i32 3
  %39 = load i32, ptr %38, align 8
  %40 = add i32 %36, %39
  %41 = sub i32 %40, 1
  %42 = load ptr, ptr %4, align 8
  %43 = getelementptr inbounds nuw %struct.HeapScanDescData, ptr %42, i32 0, i32 1
  %44 = load i32, ptr %43, align 8
  %45 = urem i32 %41, %44
  store i32 %45, ptr %3, align 4
  br label %61

46:                                               ; preds = %23
  %47 = load ptr, ptr %4, align 8
  %48 = getelementptr inbounds nuw %struct.HeapScanDescData, ptr %47, i32 0, i32 2
  %49 = load i32, ptr %48, align 4
  %50 = icmp ugt i32 %49, 0
  br i1 %50, label %51, label %56

51:                                               ; preds = %46
  %52 = load ptr, ptr %4, align 8
  %53 = getelementptr inbounds nuw %struct.HeapScanDescData, ptr %52, i32 0, i32 2
  %54 = load i32, ptr %53, align 4
  %55 = sub i32 %54, 1
  store i32 %55, ptr %3, align 4
  br label %61

56:                                               ; preds = %46
  %57 = load ptr, ptr %4, align 8
  %58 = getelementptr inbounds nuw %struct.HeapScanDescData, ptr %57, i32 0, i32 1
  %59 = load i32, ptr %58, align 8
  %60 = sub i32 %59, 1
  store i32 %60, ptr %3, align 4
  br label %61

61:                                               ; preds = %56, %51, %33, %19, %15
  %62 = load i32, ptr %3, align 4
  ret i32 %62
}