; Function Attrs: mustprogress nofree noinline norecurse nosync nounwind willreturn memory(argmem: readwrite) uwtable
define internal fastcc i32 @heapgettup_initial_block(ptr noundef captures(none) %0, i32 noundef %1) unnamed_addr #8 {
  %3 = getelementptr inbounds nuw i8, ptr %0, i64 64
  %4 = load i32, ptr %3, align 8
  %5 = icmp eq i32 %4, 0
  br i1 %5, label %30, label %6

6:                                                ; preds = %2
  %7 = getelementptr inbounds nuw i8, ptr %0, i64 72
  %8 = load i32, ptr %7, align 8
  %9 = icmp eq i32 %8, 0
  br i1 %9, label %30, label %10

10:                                               ; preds = %6
  %11 = icmp eq i32 %1, 1
  br i1 %11, label %12, label %15

12:                                               ; preds = %10
  %13 = getelementptr inbounds nuw i8, ptr %0, i64 68
  %14 = load i32, ptr %13, align 4
  br label %30

15:                                               ; preds = %10
  %16 = getelementptr inbounds nuw i8, ptr %0, i64 48
  %17 = load i32, ptr %16, align 8
  %18 = and i32 %17, -129
  store i32 %18, ptr %16, align 8
  %.not = icmp eq i32 %8, -1
  %19 = getelementptr inbounds nuw i8, ptr %0, i64 68
  %20 = load i32, ptr %19, align 4
  br i1 %.not, label %25, label %21

21:                                               ; preds = %15
  %22 = add i32 %8, -1
  %23 = add i32 %22, %20
  %24 = urem i32 %23, %4
  br label %30

25:                                               ; preds = %15
  %.not14 = icmp eq i32 %20, 0
  br i1 %.not14, label %28, label %26

26:                                               ; preds = %25
  %27 = add i32 %20, -1
  br label %30

28:                                               ; preds = %25
  %29 = add i32 %4, -1
  br label %30

30:                                               ; preds = %2, %6, %28, %26, %21, %12
  %.0 = phi i32 [ %14, %12 ], [ %24, %21 ], [ %27, %26 ], [ %29, %28 ], [ -1, %6 ], [ -1, %2 ]
  ret i32 %.0
}